; Function Attrs: mustprogress uwtable
define { i64, i64 } @_ZN17grpc_event_engine12experimental16PosixEventEngine8RunAfterENSt6chrono8durationIlSt5ratioILl1ELl1000000000EEEEN4absl12lts_2023080212AnyInvocableIFvvEEE(ptr noundef nonnull align 8 dereferenceable(152) %this, i64 %when.coerce, ptr noundef %closure) unnamed_addr #3 align 2 personality ptr @__gxx_personality_v0 {
entry:
  %agg.tmp2 = alloca %"class.absl::lts_20230802::AnyInvocable.6", align 16
  %manager_.i.i.i = getelementptr inbounds i8, ptr %closure, i64 16
  %0 = load ptr, ptr %manager_.i.i.i, align 16
  call void %0(i1 noundef zeroext false, ptr noundef nonnull %closure, ptr noundef nonnull %agg.tmp2) #26
  %manager_5.i.i.i = getelementptr inbounds i8, ptr %agg.tmp2, i64 16
  %invoker_.i.i.i = getelementptr inbounds i8, ptr %closure, i64 24
  %1 = load <2 x ptr>, ptr %manager_.i.i.i, align 16
  store <2 x ptr> %1, ptr %manager_5.i.i.i, align 16
  store ptr @_ZN4absl12lts_2023080222internal_any_invocable12EmptyManagerENS1_14FunctionToCallEPNS1_15TypeErasedStateES4_, ptr %manager_.i.i.i, align 16
  store ptr null, ptr %invoker_.i.i.i, align 8
  %call = invoke { i64, i64 } @_ZN17grpc_event_engine12experimental16PosixEventEngine16RunAfterInternalENSt6chrono8durationIlSt5ratioILl1ELl1000000000EEEEN4absl12lts_2023080212AnyInvocableIFvvEEE(ptr noundef nonnull align 8 dereferenceable(152) %this, i64 %when.coerce, ptr noundef nonnull %agg.tmp2)
          to label %invoke.cont unwind label %lpad

invoke.cont:                                      ; preds = %entry
  %2 = load ptr, ptr %manager_5.i.i.i, align 16
  call void %2(i1 noundef zeroext true, ptr noundef nonnull %agg.tmp2, ptr noundef nonnull %agg.tmp2) #26
  ret { i64, i64 } %call

lpad:                                             ; preds = %entry
  %3 = landingpad { ptr, i32 }
          cleanup
  %4 = load ptr, ptr %manager_5.i.i.i, align 16
  call void %4(i1 noundef zeroext true, ptr noundef nonnull %agg.tmp2, ptr noundef nonnull %agg.tmp2) #26
  resume { ptr, i32 } %3
}